target datalayout = "e-m:e-p270:32:32-p271:32:32-p272:64:64-i64:64-i128:128-f80:128-n8:16:32:64-S128"
target triple = "x86_64-pc-linux-gnu"

%class.CodeBlob = type <{ ptr, ptr, ptr, i32, i32, i32, i32, i32, i32, i16, i16, i8, i8, [2 x i8] }>

; Function Attrs: mustprogress nounwind uwtable
define linkonce_odr hidden noundef i64 @_Z13pointer_deltaPVKvS0_m(ptr noundef %0, ptr noundef %1, i64 noundef %2) #1 comdat {
  %4 = alloca ptr, align 8
  %5 = alloca ptr, align 8
  %6 = alloca i64, align 8
  store ptr %0, ptr %4, align 8
  store ptr %1, ptr %5, align 8
  store i64 %2, ptr %6, align 8
  %7 = load ptr, ptr %4, align 8
  %8 = ptrtoint ptr %7 to i64
  %9 = load ptr, ptr %5, align 8
  %10 = ptrtoint ptr %9 to i64
  %11 = sub i64 %8, %10
  %12 = load i64, ptr %6, align 8
  %13 = udiv i64 %11, %12
  ret i64 %13
}

; Function Attrs: mustprogress nounwind uwtable
define linkonce_odr hidden noundef ptr @_ZNK8CodeBlob12header_beginEv(ptr noundef nonnull align 8 dereferenceable(54) %0) #1 comdat align 2 {
  %2 = alloca ptr, align 8
  store ptr %0, ptr %2, align 8
  %3 = load ptr, ptr %2, align 8
  ret ptr %3
}

; Function Attrs: mustprogress nounwind uwtable
define linkonce_odr hidden noundef ptr @_ZNK8CodeBlob10header_endEv(ptr noundef nonnull align 8 dereferenceable(54) %0) #1 comdat align 2 {
  %2 = alloca ptr, align 8
  store ptr %0, ptr %2, align 8
  %3 = load ptr, ptr %2, align 8
  %4 = getelementptr inbounds %class.CodeBlob, ptr %3, i32 0, i32 9
  %5 = load i16, ptr %4, align 8
  %6 = zext i16 %5 to i32
  %7 = sext i32 %6 to i64
  %8 = getelementptr inbounds i8, ptr %3, i64 %7
  ret ptr %8
}

; Function Attrs: mustprogress nounwind uwtable
define linkonce_odr hidden noundef i32 @_Z20pointer_delta_as_intIhEiPVKT_S2_(ptr noundef %0, ptr noundef %1) #1 comdat {
  %3 = alloca ptr, align 8
  %4 = alloca ptr, align 8
  %5 = alloca i64, align 8
  store ptr %0, ptr %3, align 8
  store ptr %1, ptr %4, align 8
  %6 = load ptr, ptr %3, align 8
  %7 = load ptr, ptr %4, align 8
  %8 = call noundef i64 @_Z13pointer_deltaPVKvS0_m(ptr noundef %6, ptr noundef %7, i64 noundef 1)
  store i64 %8, ptr %5, align 8
  %9 = load i64, ptr %5, align 8
  %10 = trunc i64 %9 to i32
  ret i32 %10
}

; Function Attrs: mustprogress nounwind uwtable
define linkonce_odr hidden noundef ptr @_ZNK8CodeBlob14relocation_endEv(ptr noundef nonnull align 8 dereferenceable(54) %0) #1 comdat align 2 {
  %2 = alloca ptr, align 8
  store ptr %0, ptr %2, align 8
  %3 = load ptr, ptr %2, align 8
  %4 = call noundef ptr @_ZNK8CodeBlob10header_endEv(ptr noundef nonnull align 8 dereferenceable(54) %3)
  %5 = getelementptr inbounds %class.CodeBlob, ptr %3, i32 0, i32 4
  %6 = load i32, ptr %5, align 4
  %7 = sext i32 %6 to i64
  %8 = getelementptr inbounds i8, ptr %4, i64 %7
  ret ptr %8
}

; Function Attrs: mustprogress nounwind uwtable
define linkonce_odr hidden noundef ptr @_ZNK8CodeBlob13content_beginEv(ptr noundef nonnull align 8 dereferenceable(54) %0) #1 comdat align 2 {
  %2 = alloca ptr, align 8
  store ptr %0, ptr %2, align 8
  %3 = load ptr, ptr %2, align 8
  %4 = call noundef ptr @_ZNK8CodeBlob12header_beginEv(ptr noundef nonnull align 8 dereferenceable(54) %3)
  %5 = getelementptr inbounds %class.CodeBlob, ptr %3, i32 0, i32 5
  %6 = load i32, ptr %5, align 8
  %7 = sext i32 %6 to i64
  %8 = getelementptr inbounds i8, ptr %4, i64 %7
  ret ptr %8
}

; Function Attrs: mustprogress nounwind uwtable
define linkonce_odr hidden noundef ptr @_ZNK8CodeBlob16relocation_beginEv(ptr noundef nonnull align 8 dereferenceable(54) %0) #1 comdat align 2 {
  %2 = alloca ptr, align 8
  store ptr %0, ptr %2, align 8
  %3 = load ptr, ptr %2, align 8
  %4 = call noundef ptr @_ZNK8CodeBlob10header_endEv(ptr noundef nonnull align 8 dereferenceable(54) %3)
  ret ptr %4
}

; Function Attrs: mustprogress nounwind uwtable
define linkonce_odr hidden noundef i32 @_ZNK8CodeBlob15relocation_sizeEv(ptr noundef nonnull align 8 dereferenceable(54) %0) #1 comdat align 2 {
  %2 = alloca ptr, align 8
  store ptr %0, ptr %2, align 8
  %3 = load ptr, ptr %2, align 8
  %4 = call noundef ptr @_ZNK8CodeBlob14relocation_endEv(ptr noundef nonnull align 8 dereferenceable(54) %3)
  %5 = call noundef ptr @_ZNK8CodeBlob16relocation_beginEv(ptr noundef nonnull align 8 dereferenceable(54) %3)
  %6 = call noundef i32 @_Z20pointer_delta_as_intIhEiPVKT_S2_(ptr noundef %4, ptr noundef %5)
  ret i32 %6
}

; Function Attrs: mustprogress nounwind uwtable
define linkonce_odr hidden noundef i32 @_ZNK8CodeBlob11header_sizeEv(ptr noundef nonnull align 8 dereferenceable(54) %0) #1 comdat align 2 {
  %2 = alloca ptr, align 8
  store ptr %0, ptr %2, align 8
  %3 = load ptr, ptr %2, align 8
  %4 = getelementptr inbounds %class.CodeBlob, ptr %3, i32 0, i32 9
  %5 = load i16, ptr %4, align 8
  %6 = zext i16 %5 to i32
  ret i32 %6
}

; Function Attrs: mustprogress nounwind uwtable
define hidden noundef zeroext i1 @_ZN13CodeHeapState19blob_access_is_safeEP8CodeBlob(ptr noundef %0) #1 align 2 {
  %2 = alloca ptr, align 8
  store ptr %0, ptr %2, align 8
  %3 = load ptr, ptr %2, align 8
  %4 = icmp ne ptr %3, null
  br i1 %4, label %5, label %35

5:                                                ; preds = %1
  %6 = load ptr, ptr %2, align 8
  %7 = call noundef i32 @_ZNK8CodeBlob11header_sizeEv(ptr noundef nonnull align 8 dereferenceable(54) %6)
  %8 = icmp sge i32 %7, 0
  br i1 %8, label %9, label %35

9:                                                ; preds = %5
  %10 = load ptr, ptr %2, align 8
  %11 = call noundef i32 @_ZNK8CodeBlob15relocation_sizeEv(ptr noundef nonnull align 8 dereferenceable(54) %10)
  %12 = icmp sge i32 %11, 0
  br i1 %12, label %13, label %35

13:                                               ; preds = %9
  %14 = load ptr, ptr %2, align 8
  %15 = load ptr, ptr %2, align 8
  %16 = call noundef i32 @_ZNK8CodeBlob11header_sizeEv(ptr noundef nonnull align 8 dereferenceable(54) %15)
  %17 = sext i32 %16 to i64
  %18 = getelementptr inbounds i8, ptr %14, i64 %17
  %19 = load ptr, ptr %2, align 8
  %20 = call noundef ptr @_ZNK8CodeBlob16relocation_beginEv(ptr noundef nonnull align 8 dereferenceable(54) %19)
  %21 = icmp eq ptr %18, %20
  br i1 %21, label %22, label %35

22:                                               ; preds = %13
  %23 = load ptr, ptr %2, align 8
  %24 = load ptr, ptr %2, align 8
  %25 = call noundef i32 @_ZNK8CodeBlob11header_sizeEv(ptr noundef nonnull align 8 dereferenceable(54) %24)
  %26 = load ptr, ptr %2, align 8
  %27 = call noundef i32 @_ZNK8CodeBlob15relocation_sizeEv(ptr noundef nonnull align 8 dereferenceable(54) %26)
  %28 = add nsw i32 %25, %27
  %29 = call noundef i32 @_ZN8CodeBlob17align_code_offsetEi(i32 noundef %28)
  %30 = zext i32 %29 to i64
  %31 = getelementptr inbounds i8, ptr %23, i64 %30
  %32 = load ptr, ptr %2, align 8
  %33 = call noundef ptr @_ZNK8CodeBlob13content_beginEv(ptr noundef nonnull align 8 dereferenceable(54) %32)
  %34 = icmp eq ptr %31, %33
  br label %35

35:                                               ; preds = %22, %13, %9, %5, %1
  %36 = phi i1 [ false, %13 ], [ false, %9 ], [ false, %5 ], [ false, %1 ], [ %34, %22 ]
  ret i1 %36
}