; Function Attrs: mustprogress nounwind uwtable
define hidden noundef zeroext i1 @_ZN13CodeHeapState19blob_access_is_safeEP8CodeBlob(ptr noundef readonly %0) local_unnamed_addr #1 align 2 {
  %.not = icmp eq ptr %0, null
  br i1 %.not, label %17, label %2

2:                                                ; preds = %1
  %3 = getelementptr inbounds i8, ptr %0, i64 28
  %4 = load i32, ptr %3, align 4
  %5 = icmp sgt i32 %4, -1
  br i1 %5, label %6, label %17

6:                                                ; preds = %2
  %7 = getelementptr inbounds i8, ptr %0, i64 48
  %8 = load i16, ptr %7, align 8
  %9 = zext i16 %8 to i32
  %10 = add nuw nsw i32 %4, %9
  %11 = tail call noundef i32 @_ZN8CodeBlob17align_code_offsetEi(i32 noundef %10) #12
  %12 = zext i32 %11 to i64
  %13 = getelementptr inbounds i8, ptr %0, i64 32
  %14 = load i32, ptr %13, align 8
  %15 = sext i32 %14 to i64
  %16 = icmp eq i64 %12, %15
  br label %17

17:                                               ; preds = %6, %2, %1
  %18 = phi i1 [ false, %2 ], [ false, %1 ], [ %16, %6 ]
  ret i1 %18
}